target datalayout = "e-m:e-p270:32:32-p271:32:32-p272:64:64-i64:64-i128:128-f80:128-n8:16:32:64-S128"
target triple = "x86_64-pc-linux-gnu"

@.str.108 = private unnamed_addr constant [12 x i8] c"IDA_SUCCESS\00", align 1
@.str.109 = private unnamed_addr constant [17 x i8] c"IDA_TSTOP_RETURN\00", align 1
@.str.110 = private unnamed_addr constant [16 x i8] c"IDA_ROOT_RETURN\00", align 1
@.str.111 = private unnamed_addr constant [18 x i8] c"IDA_TOO_MUCH_WORK\00", align 1
@.str.112 = private unnamed_addr constant [17 x i8] c"IDA_TOO_MUCH_ACC\00", align 1
@.str.113 = private unnamed_addr constant [13 x i8] c"IDA_ERR_FAIL\00", align 1
@.str.114 = private unnamed_addr constant [14 x i8] c"IDA_CONV_FAIL\00", align 1
@.str.115 = private unnamed_addr constant [15 x i8] c"IDA_LINIT_FAIL\00", align 1
@.str.116 = private unnamed_addr constant [16 x i8] c"IDA_LSETUP_FAIL\00", align 1
@.str.117 = private unnamed_addr constant [16 x i8] c"IDA_LSOLVE_FAIL\00", align 1
@.str.118 = private unnamed_addr constant [16 x i8] c"IDA_CONSTR_FAIL\00", align 1
@.str.119 = private unnamed_addr constant [13 x i8] c"IDA_RES_FAIL\00", align 1
@.str.120 = private unnamed_addr constant [19 x i8] c"IDA_FIRST_RES_FAIL\00", align 1
@.str.121 = private unnamed_addr constant [16 x i8] c"IDA_REP_RES_ERR\00", align 1
@.str.122 = private unnamed_addr constant [16 x i8] c"IDA_RTFUNC_FAIL\00", align 1
@.str.123 = private unnamed_addr constant [13 x i8] c"IDA_MEM_FAIL\00", align 1
@.str.124 = private unnamed_addr constant [13 x i8] c"IDA_MEM_NULL\00", align 1
@.str.125 = private unnamed_addr constant [14 x i8] c"IDA_ILL_INPUT\00", align 1
@.str.126 = private unnamed_addr constant [14 x i8] c"IDA_NO_MALLOC\00", align 1
@.str.127 = private unnamed_addr constant [10 x i8] c"IDA_BAD_T\00", align 1
@.str.128 = private unnamed_addr constant [10 x i8] c"IDA_BAD_K\00", align 1
@.str.129 = private unnamed_addr constant [12 x i8] c"IDA_BAD_DKY\00", align 1
@.str.130 = private unnamed_addr constant [12 x i8] c"IDA_BAD_EWT\00", align 1
@.str.131 = private unnamed_addr constant [16 x i8] c"IDA_NO_RECOVERY\00", align 1
@.str.132 = private unnamed_addr constant [20 x i8] c"IDA_LINESEARCH_FAIL\00", align 1
@.str.133 = private unnamed_addr constant [12 x i8] c"IDA_NO_SENS\00", align 1
@.str.134 = private unnamed_addr constant [14 x i8] c"IDA_SRES_FAIL\00", align 1
@.str.135 = private unnamed_addr constant [17 x i8] c"IDA_REP_SRES_ERR\00", align 1
@.str.136 = private unnamed_addr constant [11 x i8] c"IDA_BAD_IS\00", align 1
@.str.137 = private unnamed_addr constant [12 x i8] c"IDA_NO_QUAD\00", align 1
@.str.138 = private unnamed_addr constant [16 x i8] c"IDA_NO_QUADSENS\00", align 1
@.str.139 = private unnamed_addr constant [14 x i8] c"IDA_QRHS_FAIL\00", align 1
@.str.140 = private unnamed_addr constant [17 x i8] c"IDA_REP_QRHS_ERR\00", align 1
@.str.141 = private unnamed_addr constant [15 x i8] c"IDA_QSRHS_FAIL\00", align 1
@.str.142 = private unnamed_addr constant [18 x i8] c"IDA_REP_QSRHS_ERR\00", align 1
@.str.143 = private unnamed_addr constant [11 x i8] c"IDA_NO_ADJ\00", align 1
@.str.144 = private unnamed_addr constant [12 x i8] c"IDA_BAD_TB0\00", align 1
@.str.145 = private unnamed_addr constant [16 x i8] c"IDA_REIFWD_FAIL\00", align 1
@.str.146 = private unnamed_addr constant [13 x i8] c"IDA_FWD_FAIL\00", align 1
@.str.147 = private unnamed_addr constant [14 x i8] c"IDA_GETY_BADT\00", align 1
@.str.148 = private unnamed_addr constant [11 x i8] c"IDA_NO_BCK\00", align 1
@.str.149 = private unnamed_addr constant [11 x i8] c"IDA_NO_FWD\00", align 1
@.str.150 = private unnamed_addr constant [19 x i8] c"IDA_NLS_SETUP_FAIL\00", align 1
@.str.151 = private unnamed_addr constant [13 x i8] c"IDA_NLS_FAIL\00", align 1
@.str.152 = private unnamed_addr constant [5 x i8] c"NONE\00", align 1

; Function Attrs: nounwind uwtable
define ptr @IDAGetReturnFlagName(i64 noundef %0) #0 {
  %2 = alloca i64, align 8
  %3 = alloca ptr, align 8
  store i64 %0, ptr %2, align 8
  %4 = call noalias ptr @malloc(i64 noundef 24) #6
  store ptr %4, ptr %3, align 8
  %5 = load i64, ptr %2, align 8
  switch i64 %5, label %138 [
    i64 0, label %6
    i64 1, label %9
    i64 2, label %12
    i64 -1, label %15
    i64 -2, label %18
    i64 -3, label %21
    i64 -4, label %24
    i64 -5, label %27
    i64 -6, label %30
    i64 -7, label %33
    i64 -11, label %36
    i64 -8, label %39
    i64 -12, label %42
    i64 -9, label %45
    i64 -10, label %48
    i64 -21, label %51
    i64 -20, label %54
    i64 -22, label %57
    i64 -23, label %60
    i64 -26, label %63
    i64 -25, label %66
    i64 -27, label %69
    i64 -24, label %72
    i64 -14, label %75
    i64 -13, label %78
    i64 -40, label %81
    i64 -41, label %84
    i64 -42, label %87
    i64 -43, label %90
    i64 -30, label %93
    i64 -50, label %96
    i64 -31, label %99
    i64 -33, label %102
    i64 -51, label %105
    i64 -53, label %108
    i64 -101, label %111
    i64 -104, label %114
    i64 -105, label %117
    i64 -106, label %120
    i64 -107, label %123
    i64 -103, label %126
    i64 -102, label %129
    i64 -16, label %132
    i64 -17, label %135
  ]

6:                                                ; preds = %1
  %7 = load ptr, ptr %3, align 8
  %8 = call i32 (ptr, ptr, ...) @sprintf(ptr noundef %7, ptr noundef @.str.108) #5
  br label %141

9:                                                ; preds = %1
  %10 = load ptr, ptr %3, align 8
  %11 = call i32 (ptr, ptr, ...) @sprintf(ptr noundef %10, ptr noundef @.str.109) #5
  br label %141

12:                                               ; preds = %1
  %13 = load ptr, ptr %3, align 8
  %14 = call i32 (ptr, ptr, ...) @sprintf(ptr noundef %13, ptr noundef @.str.110) #5
  br label %141

15:                                               ; preds = %1
  %16 = load ptr, ptr %3, align 8
  %17 = call i32 (ptr, ptr, ...) @sprintf(ptr noundef %16, ptr noundef @.str.111) #5
  br label %141

18:                                               ; preds = %1
  %19 = load ptr, ptr %3, align 8
  %20 = call i32 (ptr, ptr, ...) @sprintf(ptr noundef %19, ptr noundef @.str.112) #5
  br label %141

21:                                               ; preds = %1
  %22 = load ptr, ptr %3, align 8
  %23 = call i32 (ptr, ptr, ...) @sprintf(ptr noundef %22, ptr noundef @.str.113) #5
  br label %141

24:                                               ; preds = %1
  %25 = load ptr, ptr %3, align 8
  %26 = call i32 (ptr, ptr, ...) @sprintf(ptr noundef %25, ptr noundef @.str.114) #5
  br label %141

27:                                               ; preds = %1
  %28 = load ptr, ptr %3, align 8
  %29 = call i32 (ptr, ptr, ...) @sprintf(ptr noundef %28, ptr noundef @.str.115) #5
  br label %141

30:                                               ; preds = %1
  %31 = load ptr, ptr %3, align 8
  %32 = call i32 (ptr, ptr, ...) @sprintf(ptr noundef %31, ptr noundef @.str.116) #5
  br label %141

33:                                               ; preds = %1
  %34 = load ptr, ptr %3, align 8
  %35 = call i32 (ptr, ptr, ...) @sprintf(ptr noundef %34, ptr noundef @.str.117) #5
  br label %141

36:                                               ; preds = %1
  %37 = load ptr, ptr %3, align 8
  %38 = call i32 (ptr, ptr, ...) @sprintf(ptr noundef %37, ptr noundef @.str.118) #5
  br label %141

39:                                               ; preds = %1
  %40 = load ptr, ptr %3, align 8
  %41 = call i32 (ptr, ptr, ...) @sprintf(ptr noundef %40, ptr noundef @.str.119) #5
  br label %141

42:                                               ; preds = %1
  %43 = load ptr, ptr %3, align 8
  %44 = call i32 (ptr, ptr, ...) @sprintf(ptr noundef %43, ptr noundef @.str.120) #5
  br label %141

45:                                               ; preds = %1
  %46 = load ptr, ptr %3, align 8
  %47 = call i32 (ptr, ptr, ...) @sprintf(ptr noundef %46, ptr noundef @.str.121) #5
  br label %141

48:                                               ; preds = %1
  %49 = load ptr, ptr %3, align 8
  %50 = call i32 (ptr, ptr, ...) @sprintf(ptr noundef %49, ptr noundef @.str.122) #5
  br label %141

51:                                               ; preds = %1
  %52 = load ptr, ptr %3, align 8
  %53 = call i32 (ptr, ptr, ...) @sprintf(ptr noundef %52, ptr noundef @.str.123) #5
  br label %141

54:                                               ; preds = %1
  %55 = load ptr, ptr %3, align 8
  %56 = call i32 (ptr, ptr, ...) @sprintf(ptr noundef %55, ptr noundef @.str.124) #5
  br label %141

57:                                               ; preds = %1
  %58 = load ptr, ptr %3, align 8
  %59 = call i32 (ptr, ptr, ...) @sprintf(ptr noundef %58, ptr noundef @.str.125) #5
  br label %141

60:                                               ; preds = %1
  %61 = load ptr, ptr %3, align 8
  %62 = call i32 (ptr, ptr, ...) @sprintf(ptr noundef %61, ptr noundef @.str.126) #5
  br label %141

63:                                               ; preds = %1
  %64 = load ptr, ptr %3, align 8
  %65 = call i32 (ptr, ptr, ...) @sprintf(ptr noundef %64, ptr noundef @.str.127) #5
  br label %141

66:                                               ; preds = %1
  %67 = load ptr, ptr %3, align 8
  %68 = call i32 (ptr, ptr, ...) @sprintf(ptr noundef %67, ptr noundef @.str.128) #5
  br label %141

69:                                               ; preds = %1
  %70 = load ptr, ptr %3, align 8
  %71 = call i32 (ptr, ptr, ...) @sprintf(ptr noundef %70, ptr noundef @.str.129) #5
  br label %141

72:                                               ; preds = %1
  %73 = load ptr, ptr %3, align 8
  %74 = call i32 (ptr, ptr, ...) @sprintf(ptr noundef %73, ptr noundef @.str.130) #5
  br label %141

75:                                               ; preds = %1
  %76 = load ptr, ptr %3, align 8
  %77 = call i32 (ptr, ptr, ...) @sprintf(ptr noundef %76, ptr noundef @.str.131) #5
  br label %141

78:                                               ; preds = %1
  %79 = load ptr, ptr %3, align 8
  %80 = call i32 (ptr, ptr, ...) @sprintf(ptr noundef %79, ptr noundef @.str.132) #5
  br label %141

81:                                               ; preds = %1
  %82 = load ptr, ptr %3, align 8
  %83 = call i32 (ptr, ptr, ...) @sprintf(ptr noundef %82, ptr noundef @.str.133) #5
  br label %141

84:                                               ; preds = %1
  %85 = load ptr, ptr %3, align 8
  %86 = call i32 (ptr, ptr, ...) @sprintf(ptr noundef %85, ptr noundef @.str.134) #5
  br label %141

87:                                               ; preds = %1
  %88 = load ptr, ptr %3, align 8
  %89 = call i32 (ptr, ptr, ...) @sprintf(ptr noundef %88, ptr noundef @.str.135) #5
  br label %141

90:                                               ; preds = %1
  %91 = load ptr, ptr %3, align 8
  %92 = call i32 (ptr, ptr, ...) @sprintf(ptr noundef %91, ptr noundef @.str.136) #5
  br label %141

93:                                               ; preds = %1
  %94 = load ptr, ptr %3, align 8
  %95 = call i32 (ptr, ptr, ...) @sprintf(ptr noundef %94, ptr noundef @.str.137) #5
  br label %141

96:                                               ; preds = %1
  %97 = load ptr, ptr %3, align 8
  %98 = call i32 (ptr, ptr, ...) @sprintf(ptr noundef %97, ptr noundef @.str.138) #5
  br label %141

99:                                               ; preds = %1
  %100 = load ptr, ptr %3, align 8
  %101 = call i32 (ptr, ptr, ...) @sprintf(ptr noundef %100, ptr noundef @.str.139) #5
  br label %141

102:                                              ; preds = %1
  %103 = load ptr, ptr %3, align 8
  %104 = call i32 (ptr, ptr, ...) @sprintf(ptr noundef %103, ptr noundef @.str.140) #5
  br label %141

105:                                              ; preds = %1
  %106 = load ptr, ptr %3, align 8
  %107 = call i32 (ptr, ptr, ...) @sprintf(ptr noundef %106, ptr noundef @.str.141) #5
  br label %141

108:                                              ; preds = %1
  %109 = load ptr, ptr %3, align 8
  %110 = call i32 (ptr, ptr, ...) @sprintf(ptr noundef %109, ptr noundef @.str.142) #5
  br label %141

111:                                              ; preds = %1
  %112 = load ptr, ptr %3, align 8
  %113 = call i32 (ptr, ptr, ...) @sprintf(ptr noundef %112, ptr noundef @.str.143) #5
  br label %141

114:                                              ; preds = %1
  %115 = load ptr, ptr %3, align 8
  %116 = call i32 (ptr, ptr, ...) @sprintf(ptr noundef %115, ptr noundef @.str.144) #5
  br label %141

117:                                              ; preds = %1
  %118 = load ptr, ptr %3, align 8
  %119 = call i32 (ptr, ptr, ...) @sprintf(ptr noundef %118, ptr noundef @.str.145) #5
  br label %141

120:                                              ; preds = %1
  %121 = load ptr, ptr %3, align 8
  %122 = call i32 (ptr, ptr, ...) @sprintf(ptr noundef %121, ptr noundef @.str.146) #5
  br label %141

123:                                              ; preds = %1
  %124 = load ptr, ptr %3, align 8
  %125 = call i32 (ptr, ptr, ...) @sprintf(ptr noundef %124, ptr noundef @.str.147) #5
  br label %141

126:                                              ; preds = %1
  %127 = load ptr, ptr %3, align 8
  %128 = call i32 (ptr, ptr, ...) @sprintf(ptr noundef %127, ptr noundef @.str.148) #5
  br label %141

129:                                              ; preds = %1
  %130 = load ptr, ptr %3, align 8
  %131 = call i32 (ptr, ptr, ...) @sprintf(ptr noundef %130, ptr noundef @.str.149) #5
  br label %141

132:                                              ; preds = %1
  %133 = load ptr, ptr %3, align 8
  %134 = call i32 (ptr, ptr, ...) @sprintf(ptr noundef %133, ptr noundef @.str.150) #5
  br label %141

135:                                              ; preds = %1
  %136 = load ptr, ptr %3, align 8
  %137 = call i32 (ptr, ptr, ...) @sprintf(ptr noundef %136, ptr noundef @.str.151) #5
  br label %141

138:                                              ; preds = %1
  %139 = load ptr, ptr %3, align 8
  %140 = call i32 (ptr, ptr, ...) @sprintf(ptr noundef %139, ptr noundef @.str.152) #5
  br label %141

141:                                              ; preds = %138, %135, %132, %129, %126, %123, %120, %117, %114, %111, %108, %105, %102, %99, %96, %93, %90, %87, %84, %81, %78, %75, %72, %69, %66, %63, %60, %57, %54, %51, %48, %45, %42, %39, %36, %33, %30, %27, %24, %21, %18, %15, %12, %9, %6
  %142 = load ptr, ptr %3, align 8
  ret ptr %142
}