; Function Attrs: mustprogress nofree nounwind willreturn memory(readwrite, argmem: none) uwtable
define noalias noundef ptr @IDAGetReturnFlagName(i64 noundef %0) local_unnamed_addr #4 {
  %2 = tail call noalias dereferenceable_or_null(24) ptr @malloc(i64 noundef 24) #10
  switch i64 %0, label %47 [
    i64 0, label %3
    i64 1, label %4
    i64 2, label %5
    i64 -1, label %6
    i64 -2, label %7
    i64 -3, label %8
    i64 -4, label %9
    i64 -5, label %10
    i64 -6, label %11
    i64 -7, label %12
    i64 -11, label %13
    i64 -8, label %14
    i64 -12, label %15
    i64 -9, label %16
    i64 -10, label %17
    i64 -21, label %18
    i64 -20, label %19
    i64 -22, label %20
    i64 -23, label %21
    i64 -26, label %22
    i64 -25, label %23
    i64 -27, label %24
    i64 -24, label %25
    i64 -14, label %26
    i64 -13, label %27
    i64 -40, label %28
    i64 -41, label %29
    i64 -42, label %30
    i64 -43, label %31
    i64 -30, label %32
    i64 -50, label %33
    i64 -31, label %34
    i64 -33, label %35
    i64 -51, label %36
    i64 -53, label %37
    i64 -101, label %38
    i64 -104, label %39
    i64 -105, label %40
    i64 -106, label %41
    i64 -107, label %42
    i64 -103, label %43
    i64 -102, label %44
    i64 -16, label %45
    i64 -17, label %46
  ]

3:                                                ; preds = %1
  tail call void @llvm.memcpy.p0.p0.i64(ptr noundef nonnull align 1 dereferenceable(12) %2, ptr noundef nonnull align 1 dereferenceable(12) @.str.108, i64 12, i1 false)
  br label %48

4:                                                ; preds = %1
  tail call void @llvm.memcpy.p0.p0.i64(ptr noundef nonnull align 1 dereferenceable(17) %2, ptr noundef nonnull align 1 dereferenceable(17) @.str.109, i64 17, i1 false)
  br label %48

5:                                                ; preds = %1
  tail call void @llvm.memcpy.p0.p0.i64(ptr noundef nonnull align 1 dereferenceable(16) %2, ptr noundef nonnull align 1 dereferenceable(16) @.str.110, i64 16, i1 false)
  br label %48

6:                                                ; preds = %1
  tail call void @llvm.memcpy.p0.p0.i64(ptr noundef nonnull align 1 dereferenceable(18) %2, ptr noundef nonnull align 1 dereferenceable(18) @.str.111, i64 18, i1 false)
  br label %48

7:                                                ; preds = %1
  tail call void @llvm.memcpy.p0.p0.i64(ptr noundef nonnull align 1 dereferenceable(17) %2, ptr noundef nonnull align 1 dereferenceable(17) @.str.112, i64 17, i1 false)
  br label %48

8:                                                ; preds = %1
  tail call void @llvm.memcpy.p0.p0.i64(ptr noundef nonnull align 1 dereferenceable(13) %2, ptr noundef nonnull align 1 dereferenceable(13) @.str.113, i64 13, i1 false)
  br label %48

9:                                                ; preds = %1
  tail call void @llvm.memcpy.p0.p0.i64(ptr noundef nonnull align 1 dereferenceable(14) %2, ptr noundef nonnull align 1 dereferenceable(14) @.str.114, i64 14, i1 false)
  br label %48

10:                                               ; preds = %1
  tail call void @llvm.memcpy.p0.p0.i64(ptr noundef nonnull align 1 dereferenceable(15) %2, ptr noundef nonnull align 1 dereferenceable(15) @.str.115, i64 15, i1 false)
  br label %48

11:                                               ; preds = %1
  tail call void @llvm.memcpy.p0.p0.i64(ptr noundef nonnull align 1 dereferenceable(16) %2, ptr noundef nonnull align 1 dereferenceable(16) @.str.116, i64 16, i1 false)
  br label %48

12:                                               ; preds = %1
  tail call void @llvm.memcpy.p0.p0.i64(ptr noundef nonnull align 1 dereferenceable(16) %2, ptr noundef nonnull align 1 dereferenceable(16) @.str.117, i64 16, i1 false)
  br label %48

13:                                               ; preds = %1
  tail call void @llvm.memcpy.p0.p0.i64(ptr noundef nonnull align 1 dereferenceable(16) %2, ptr noundef nonnull align 1 dereferenceable(16) @.str.118, i64 16, i1 false)
  br label %48

14:                                               ; preds = %1
  tail call void @llvm.memcpy.p0.p0.i64(ptr noundef nonnull align 1 dereferenceable(13) %2, ptr noundef nonnull align 1 dereferenceable(13) @.str.119, i64 13, i1 false)
  br label %48

15:                                               ; preds = %1
  tail call void @llvm.memcpy.p0.p0.i64(ptr noundef nonnull align 1 dereferenceable(19) %2, ptr noundef nonnull align 1 dereferenceable(19) @.str.120, i64 19, i1 false)
  br label %48

16:                                               ; preds = %1
  tail call void @llvm.memcpy.p0.p0.i64(ptr noundef nonnull align 1 dereferenceable(16) %2, ptr noundef nonnull align 1 dereferenceable(16) @.str.121, i64 16, i1 false)
  br label %48

17:                                               ; preds = %1
  tail call void @llvm.memcpy.p0.p0.i64(ptr noundef nonnull align 1 dereferenceable(16) %2, ptr noundef nonnull align 1 dereferenceable(16) @.str.122, i64 16, i1 false)
  br label %48

18:                                               ; preds = %1
  tail call void @llvm.memcpy.p0.p0.i64(ptr noundef nonnull align 1 dereferenceable(13) %2, ptr noundef nonnull align 1 dereferenceable(13) @.str.123, i64 13, i1 false)
  br label %48

19:                                               ; preds = %1
  tail call void @llvm.memcpy.p0.p0.i64(ptr noundef nonnull align 1 dereferenceable(13) %2, ptr noundef nonnull align 1 dereferenceable(13) @.str.124, i64 13, i1 false)
  br label %48

20:                                               ; preds = %1
  tail call void @llvm.memcpy.p0.p0.i64(ptr noundef nonnull align 1 dereferenceable(14) %2, ptr noundef nonnull align 1 dereferenceable(14) @.str.125, i64 14, i1 false)
  br label %48

21:                                               ; preds = %1
  tail call void @llvm.memcpy.p0.p0.i64(ptr noundef nonnull align 1 dereferenceable(14) %2, ptr noundef nonnull align 1 dereferenceable(14) @.str.126, i64 14, i1 false)
  br label %48

22:                                               ; preds = %1
  tail call void @llvm.memcpy.p0.p0.i64(ptr noundef nonnull align 1 dereferenceable(10) %2, ptr noundef nonnull align 1 dereferenceable(10) @.str.127, i64 10, i1 false)
  br label %48

23:                                               ; preds = %1
  tail call void @llvm.memcpy.p0.p0.i64(ptr noundef nonnull align 1 dereferenceable(10) %2, ptr noundef nonnull align 1 dereferenceable(10) @.str.128, i64 10, i1 false)
  br label %48

24:                                               ; preds = %1
  tail call void @llvm.memcpy.p0.p0.i64(ptr noundef nonnull align 1 dereferenceable(12) %2, ptr noundef nonnull align 1 dereferenceable(12) @.str.129, i64 12, i1 false)
  br label %48

25:                                               ; preds = %1
  tail call void @llvm.memcpy.p0.p0.i64(ptr noundef nonnull align 1 dereferenceable(12) %2, ptr noundef nonnull align 1 dereferenceable(12) @.str.130, i64 12, i1 false)
  br label %48

26:                                               ; preds = %1
  tail call void @llvm.memcpy.p0.p0.i64(ptr noundef nonnull align 1 dereferenceable(16) %2, ptr noundef nonnull align 1 dereferenceable(16) @.str.131, i64 16, i1 false)
  br label %48

27:                                               ; preds = %1
  tail call void @llvm.memcpy.p0.p0.i64(ptr noundef nonnull align 1 dereferenceable(20) %2, ptr noundef nonnull align 1 dereferenceable(20) @.str.132, i64 20, i1 false)
  br label %48

28:                                               ; preds = %1
  tail call void @llvm.memcpy.p0.p0.i64(ptr noundef nonnull align 1 dereferenceable(12) %2, ptr noundef nonnull align 1 dereferenceable(12) @.str.133, i64 12, i1 false)
  br label %48

29:                                               ; preds = %1
  tail call void @llvm.memcpy.p0.p0.i64(ptr noundef nonnull align 1 dereferenceable(14) %2, ptr noundef nonnull align 1 dereferenceable(14) @.str.134, i64 14, i1 false)
  br label %48

30:                                               ; preds = %1
  tail call void @llvm.memcpy.p0.p0.i64(ptr noundef nonnull align 1 dereferenceable(17) %2, ptr noundef nonnull align 1 dereferenceable(17) @.str.135, i64 17, i1 false)
  br label %48

31:                                               ; preds = %1
  tail call void @llvm.memcpy.p0.p0.i64(ptr noundef nonnull align 1 dereferenceable(11) %2, ptr noundef nonnull align 1 dereferenceable(11) @.str.136, i64 11, i1 false)
  br label %48

32:                                               ; preds = %1
  tail call void @llvm.memcpy.p0.p0.i64(ptr noundef nonnull align 1 dereferenceable(12) %2, ptr noundef nonnull align 1 dereferenceable(12) @.str.137, i64 12, i1 false)
  br label %48

33:                                               ; preds = %1
  tail call void @llvm.memcpy.p0.p0.i64(ptr noundef nonnull align 1 dereferenceable(16) %2, ptr noundef nonnull align 1 dereferenceable(16) @.str.138, i64 16, i1 false)
  br label %48

34:                                               ; preds = %1
  tail call void @llvm.memcpy.p0.p0.i64(ptr noundef nonnull align 1 dereferenceable(14) %2, ptr noundef nonnull align 1 dereferenceable(14) @.str.139, i64 14, i1 false)
  br label %48

35:                                               ; preds = %1
  tail call void @llvm.memcpy.p0.p0.i64(ptr noundef nonnull align 1 dereferenceable(17) %2, ptr noundef nonnull align 1 dereferenceable(17) @.str.140, i64 17, i1 false)
  br label %48

36:                                               ; preds = %1
  tail call void @llvm.memcpy.p0.p0.i64(ptr noundef nonnull align 1 dereferenceable(15) %2, ptr noundef nonnull align 1 dereferenceable(15) @.str.141, i64 15, i1 false)
  br label %48

37:                                               ; preds = %1
  tail call void @llvm.memcpy.p0.p0.i64(ptr noundef nonnull align 1 dereferenceable(18) %2, ptr noundef nonnull align 1 dereferenceable(18) @.str.142, i64 18, i1 false)
  br label %48

38:                                               ; preds = %1
  tail call void @llvm.memcpy.p0.p0.i64(ptr noundef nonnull align 1 dereferenceable(11) %2, ptr noundef nonnull align 1 dereferenceable(11) @.str.143, i64 11, i1 false)
  br label %48

39:                                               ; preds = %1
  tail call void @llvm.memcpy.p0.p0.i64(ptr noundef nonnull align 1 dereferenceable(12) %2, ptr noundef nonnull align 1 dereferenceable(12) @.str.144, i64 12, i1 false)
  br label %48

40:                                               ; preds = %1
  tail call void @llvm.memcpy.p0.p0.i64(ptr noundef nonnull align 1 dereferenceable(16) %2, ptr noundef nonnull align 1 dereferenceable(16) @.str.145, i64 16, i1 false)
  br label %48

41:                                               ; preds = %1
  tail call void @llvm.memcpy.p0.p0.i64(ptr noundef nonnull align 1 dereferenceable(13) %2, ptr noundef nonnull align 1 dereferenceable(13) @.str.146, i64 13, i1 false)
  br label %48

42:                                               ; preds = %1
  tail call void @llvm.memcpy.p0.p0.i64(ptr noundef nonnull align 1 dereferenceable(14) %2, ptr noundef nonnull align 1 dereferenceable(14) @.str.147, i64 14, i1 false)
  br label %48

43:                                               ; preds = %1
  tail call void @llvm.memcpy.p0.p0.i64(ptr noundef nonnull align 1 dereferenceable(11) %2, ptr noundef nonnull align 1 dereferenceable(11) @.str.148, i64 11, i1 false)
  br label %48

44:                                               ; preds = %1
  tail call void @llvm.memcpy.p0.p0.i64(ptr noundef nonnull align 1 dereferenceable(11) %2, ptr noundef nonnull align 1 dereferenceable(11) @.str.149, i64 11, i1 false)
  br label %48

45:                                               ; preds = %1
  tail call void @llvm.memcpy.p0.p0.i64(ptr noundef nonnull align 1 dereferenceable(19) %2, ptr noundef nonnull align 1 dereferenceable(19) @.str.150, i64 19, i1 false)
  br label %48

46:                                               ; preds = %1
  tail call void @llvm.memcpy.p0.p0.i64(ptr noundef nonnull align 1 dereferenceable(13) %2, ptr noundef nonnull align 1 dereferenceable(13) @.str.151, i64 13, i1 false)
  br label %48

47:                                               ; preds = %1
  tail call void @llvm.memcpy.p0.p0.i64(ptr noundef nonnull align 1 dereferenceable(5) %2, ptr noundef nonnull align 1 dereferenceable(5) @.str.152, i64 5, i1 false)
  br label %48

48:                                               ; preds = %47, %46, %45, %44, %43, %42, %41, %40, %39, %38, %37, %36, %35, %34, %33, %32, %31, %30, %29, %28, %27, %26, %25, %24, %23, %22, %21, %20, %19, %18, %17, %16, %15, %14, %13, %12, %11, %10, %9, %8, %7, %6, %5, %4, %3
  ret ptr %2
}